; ModuleID = 'source-C-CXX/15/320.cpp'
source_filename = "source-C-CXX/15/320.cpp"
target datalayout = "e-m:e-p270:32:32-p271:32:32-p272:64:64-i64:64-f80:128-n8:16:32:64-S128"
target triple = "x86_64-pc-linux-gnu"

%"class.std::ios_base::Init" = type { i8 }
%"class.std::basic_istream" = type { i32 (...)**, i64, %"class.std::basic_ios" }
%"class.std::basic_ios" = type { %"class.std::ios_base", %"class.std::basic_ostream"*, i8, i8, %"class.std::basic_streambuf"*, %"class.std::ctype"*, %"class.std::num_put"*, %"class.std::num_get"* }
%"class.std::ios_base" = type { i32 (...)**, i64, i64, i32, i32, i32, %"struct.std::ios_base::_Callback_list"*, %"struct.std::ios_base::_Words", [8 x %"struct.std::ios_base::_Words"], i32, %"struct.std::ios_base::_Words"*, %"class.std::locale" }
%"struct.std::ios_base::_Callback_list" = type { %"struct.std::ios_base::_Callback_list"*, void (i32, %"class.std::ios_base"*, i32)*, i32, i32 }
%"struct.std::ios_base::_Words" = type { i8*, i64 }
%"class.std::locale" = type { %"class.std::locale::_Impl"* }
%"class.std::locale::_Impl" = type { i32, %"class.std::locale::facet"**, i64, %"class.std::locale::facet"**, i8** }
%"class.std::locale::facet" = type <{ i32 (...)**, i32, [4 x i8] }>
%"class.std::basic_ostream" = type { i32 (...)**, %"class.std::basic_ios" }
%"class.std::basic_streambuf" = type { i32 (...)**, i8*, i8*, i8*, i8*, i8*, i8*, %"class.std::locale" }
%"class.std::ctype" = type <{ %"class.std::locale::facet.base", [4 x i8], %struct.__locale_struct*, i8, [7 x i8], i32*, i32*, i16*, i8, [256 x i8], [256 x i8], i8, [6 x i8] }>
%"class.std::locale::facet.base" = type <{ i32 (...)**, i32 }>
%struct.__locale_struct = type { [13 x %struct.__locale_data*], i16*, i32*, i32*, [13 x i8*] }
%struct.__locale_data = type opaque
%"class.std::num_put" = type { %"class.std::locale::facet.base", [4 x i8] }
%"class.std::num_get" = type { %"class.std::locale::facet.base", [4 x i8] }

@_ZStL8__ioinit = internal global %"class.std::ios_base::Init" zeroinitializer, align 1
@__dso_handle = external hidden global i8
@_ZSt3cin = external global %"class.std::basic_istream", align 8
@_ZSt4cout = external global %"class.std::basic_ostream", align 8
@llvm.global_ctors = appending global [1 x { i32, void ()*, i8* }] [{ i32, void ()*, i8* } { i32 65535, void ()* @_GLOBAL__sub_I_320.cpp, i8* null }]

declare void @_ZNSt8ios_base4InitC1Ev(%"class.std::ios_base::Init"* nonnull align 1 dereferenceable(1)) unnamed_addr #0

; Function Attrs: nounwind
declare void @_ZNSt8ios_base4InitD1Ev(%"class.std::ios_base::Init"* nonnull align 1 dereferenceable(1)) unnamed_addr #1

; Function Attrs: nofree nounwind
declare i32 @__cxa_atexit(void (i8*)*, i8*, i8*) local_unnamed_addr #2

; Function Attrs: mustprogress nofree norecurse nosync nounwind readnone sspstrong uwtable willreturn
define dso_local i32 @_Z5poweri(i32 %0) local_unnamed_addr #3 {
  %2 = icmp slt i32 %0, 1
  br i1 %2, label %52, label %3

3:                                                ; preds = %1
  %4 = icmp ult i32 %0, 8
  br i1 %4, label %43, label %5

5:                                                ; preds = %3
  %6 = and i32 %0, -8
  %7 = or i32 %6, 1
  %8 = add i32 %6, -8
  %9 = lshr exact i32 %8, 3
  %10 = add nuw nsw i32 %9, 1
  %11 = and i32 %10, 7
  %12 = icmp ult i32 %8, 56
  br i1 %12, label %23, label %13

13:                                               ; preds = %5
  %14 = and i32 %10, 1073741816
  br label %15

15:                                               ; preds = %15, %13
  %16 = phi <4 x i32> [ <i32 1, i32 1, i32 1, i32 1>, %13 ], [ %19, %15 ]
  %17 = phi <4 x i32> [ <i32 1, i32 1, i32 1, i32 1>, %13 ], [ %20, %15 ]
  %18 = phi i32 [ %14, %13 ], [ %21, %15 ]
  %19 = mul <4 x i32> %16, <i32 100000000, i32 100000000, i32 100000000, i32 100000000>
  %20 = mul <4 x i32> %17, <i32 100000000, i32 100000000, i32 100000000, i32 100000000>
  %21 = add i32 %18, -8
  %22 = icmp eq i32 %21, 0
  br i1 %22, label %23, label %15, !llvm.loop !5

23:                                               ; preds = %15, %5
  %24 = phi <4 x i32> [ undef, %5 ], [ %19, %15 ]
  %25 = phi <4 x i32> [ undef, %5 ], [ %20, %15 ]
  %26 = phi <4 x i32> [ <i32 1, i32 1, i32 1, i32 1>, %5 ], [ %19, %15 ]
  %27 = phi <4 x i32> [ <i32 1, i32 1, i32 1, i32 1>, %5 ], [ %20, %15 ]
  %28 = icmp eq i32 %11, 0
  br i1 %28, label %37, label %29

29:                                               ; preds = %23, %29
  %30 = phi <4 x i32> [ %33, %29 ], [ %26, %23 ]
  %31 = phi <4 x i32> [ %34, %29 ], [ %27, %23 ]
  %32 = phi i32 [ %35, %29 ], [ %11, %23 ]
  %33 = mul <4 x i32> %30, <i32 10, i32 10, i32 10, i32 10>
  %34 = mul <4 x i32> %31, <i32 10, i32 10, i32 10, i32 10>
  %35 = add i32 %32, -1
  %36 = icmp eq i32 %35, 0
  br i1 %36, label %37, label %29, !llvm.loop !8

37:                                               ; preds = %29, %23
  %38 = phi <4 x i32> [ %24, %23 ], [ %33, %29 ]
  %39 = phi <4 x i32> [ %25, %23 ], [ %34, %29 ]
  %40 = mul <4 x i32> %39, %38
  %41 = call i32 @llvm.vector.reduce.mul.v4i32(<4 x i32> %40)
  %42 = icmp eq i32 %6, %0
  br i1 %42, label %52, label %43

43:                                               ; preds = %3, %37
  %44 = phi i32 [ 1, %3 ], [ %41, %37 ]
  %45 = phi i32 [ 1, %3 ], [ %7, %37 ]
  br label %46

46:                                               ; preds = %43, %46
  %47 = phi i32 [ %49, %46 ], [ %44, %43 ]
  %48 = phi i32 [ %50, %46 ], [ %45, %43 ]
  %49 = mul nsw i32 %47, 10
  %50 = add nuw i32 %48, 1
  %51 = icmp eq i32 %48, %0
  br i1 %51, label %52, label %46, !llvm.loop !10

52:                                               ; preds = %46, %37, %1
  %53 = phi i32 [ 1, %1 ], [ %41, %37 ], [ %49, %46 ]
  ret i32 %53
}

; Function Attrs: argmemonly mustprogress nofree nosync nounwind willreturn
declare void @llvm.lifetime.start.p0i8(i64 immarg, i8* nocapture) #4

; Function Attrs: argmemonly mustprogress nofree nosync nounwind willreturn
declare void @llvm.lifetime.end.p0i8(i64 immarg, i8* nocapture) #4

; Function Attrs: mustprogress norecurse sspstrong uwtable
define dso_local i32 @main() local_unnamed_addr #5 {
  %1 = alloca i32, align 4
  %2 = bitcast i32* %1 to i8*
  call void @llvm.lifetime.start.p0i8(i64 4, i8* nonnull %2) #8
  %3 = call nonnull align 8 dereferenceable(16) %"class.std::basic_istream"* @_ZNSirsERi(%"class.std::basic_istream"* nonnull align 8 dereferenceable(16) @_ZSt3cin, i32* nonnull align 4 dereferenceable(4) %1)
  %4 = load i32, i32* %1, align 4
  %5 = srem i32 %4, 10
  %6 = icmp eq i32 %5, %4
  br i1 %6, label %10, label %7

7:                                                ; preds = %0
  %8 = srem i32 %4, 100
  %9 = icmp eq i32 %8, %4
  br i1 %9, label %10, label %25

10:                                               ; preds = %31, %28, %25, %7, %0
  %11 = phi i32 [ 1, %0 ], [ 2, %7 ], [ 3, %25 ], [ 4, %28 ], [ %34, %31 ]
  %12 = srem i32 %4, 10
  %13 = sdiv i32 %4, 10
  store i32 %13, i32* %1, align 4, !tbaa !12
  %14 = call nonnull align 8 dereferenceable(8) %"class.std::basic_ostream"* @_ZNSolsEi(%"class.std::basic_ostream"* nonnull align 8 dereferenceable(8) @_ZSt4cout, i32 %12)
  %15 = icmp eq i32 %11, 1
  br i1 %15, label %24, label %16, !llvm.loop !16

16:                                               ; preds = %10, %16
  %17 = phi i32 [ %22, %16 ], [ 1, %10 ]
  %18 = load i32, i32* %1, align 4, !tbaa !12
  %19 = srem i32 %18, 10
  %20 = sdiv i32 %18, 10
  store i32 %20, i32* %1, align 4, !tbaa !12
  %21 = call nonnull align 8 dereferenceable(8) %"class.std::basic_ostream"* @_ZNSolsEi(%"class.std::basic_ostream"* nonnull align 8 dereferenceable(8) @_ZSt4cout, i32 %19)
  %22 = add nuw nsw i32 %17, 1
  %23 = icmp eq i32 %22, %11
  br i1 %23, label %24, label %16, !llvm.loop !16

24:                                               ; preds = %16, %10
  call void @llvm.lifetime.end.p0i8(i64 4, i8* nonnull %2) #8
  ret i32 0

25:                                               ; preds = %7
  %26 = srem i32 %4, 1000
  %27 = icmp eq i32 %26, %4
  br i1 %27, label %10, label %28

28:                                               ; preds = %25
  %29 = srem i32 %4, 10000
  %30 = icmp eq i32 %29, %4
  br i1 %30, label %10, label %31

31:                                               ; preds = %28
  %32 = srem i32 %4, 100000
  %33 = icmp eq i32 %32, %4
  %34 = select i1 %33, i32 5, i32 6
  br label %10
}

declare nonnull align 8 dereferenceable(16) %"class.std::basic_istream"* @_ZNSirsERi(%"class.std::basic_istream"* nonnull align 8 dereferenceable(16), i32* nonnull align 4 dereferenceable(4)) local_unnamed_addr #0

declare nonnull align 8 dereferenceable(8) %"class.std::basic_ostream"* @_ZNSolsEi(%"class.std::basic_ostream"* nonnull align 8 dereferenceable(8), i32) local_unnamed_addr #0

; Function Attrs: sspstrong uwtable
define internal void @_GLOBAL__sub_I_320.cpp() #6 section ".text.startup" {
  tail call void @_ZNSt8ios_base4InitC1Ev(%"class.std::ios_base::Init"* nonnull align 1 dereferenceable(1) @_ZStL8__ioinit)
  %1 = tail call i32 @__cxa_atexit(void (i8*)* bitcast (void (%"class.std::ios_base::Init"*)* @_ZNSt8ios_base4InitD1Ev to void (i8*)*), i8* getelementptr inbounds (%"class.std::ios_base::Init", %"class.std::ios_base::Init"* @_ZStL8__ioinit, i64 0, i32 0), i8* nonnull @__dso_handle) #8
  ret void
}

; Function Attrs: nofree nosync nounwind readnone willreturn
declare i32 @llvm.vector.reduce.mul.v4i32(<4 x i32>) #7


!llvm.module.flags = !{!0, !1, !2, !3}
!llvm.ident = !{!4}

!0 = !{i32 1, !"wchar_size", i32 4}
!1 = !{i32 7, !"PIC Level", i32 2}
!2 = !{i32 7, !"PIE Level", i32 2}
!3 = !{i32 7, !"uwtable", i32 1}
!4 = !{!"clang version 13.0.0"}
!5 = distinct !{!5, !6, !7}
!6 = !{!"llvm.loop.mustprogress"}
!7 = !{!"llvm.loop.isvectorized", i32 1}
!8 = distinct !{!8, !9}
!9 = !{!"llvm.loop.unroll.disable"}
!10 = distinct !{!10, !6, !11, !7}
!11 = !{!"llvm.loop.unroll.runtime.disable"}
!12 = !{!13, !13, i64 0}
!13 = !{!"int", !14, i64 0}
!14 = !{!"omnipotent char", !15, i64 0}
!15 = !{!"Simple C++ TBAA"}
!16 = distinct !{!16, !6}
